target datalayout = "e-m:e-p270:32:32-p271:32:32-p272:64:64-i64:64-i128:128-f80:128-n8:16:32:64-S128"
target triple = "x86_64-pc-linux-gnu"

%struct._lv_image_t = type { %struct._lv_obj_t, ptr, ptr, %struct.lv_point_t, i32, i32, i32, i32, i32, %struct.lv_point_t, i16 }
%struct._lv_obj_t = type { ptr, ptr, ptr, ptr, ptr, %struct.lv_area_t, i32, i16, i16 }
%struct.lv_area_t = type { i32, i32, i32, i32 }
%struct.lv_point_t = type { i32, i32 }

; Function Attrs: nounwind uwtable
define void @lv_image_get_pivot(ptr noundef %0, ptr noundef %1) #0 {
  %3 = alloca ptr, align 8
  %4 = alloca ptr, align 8
  %5 = alloca ptr, align 8
  store ptr %0, ptr %3, align 8, !tbaa !8
  store ptr %1, ptr %4, align 8, !tbaa !45
  br label %6

6:                                                ; preds = %2
  %7 = load ptr, ptr %3, align 8, !tbaa !8
  %8 = icmp ne ptr %7, null
  br i1 %8, label %13, label %9

9:                                                ; preds = %6
  br label %10

10:                                               ; preds = %9
  br label %11

11:                                               ; preds = %10
  br label %12

12:                                               ; preds = %11, %12
  br label %12

13:                                               ; preds = %6
  br label %14

14:                                               ; preds = %13
  call void @llvm.lifetime.start.p0(i64 8, ptr %5) #5
  %15 = load ptr, ptr %3, align 8, !tbaa !8
  store ptr %15, ptr %5, align 8, !tbaa !10
  %16 = load ptr, ptr %5, align 8, !tbaa !10
  %17 = getelementptr inbounds nuw %struct._lv_image_t, ptr %16, i32 0, i32 9
  %18 = getelementptr inbounds nuw %struct.lv_point_t, ptr %17, i32 0, i32 0
  %19 = load i32, ptr %18, align 4, !tbaa !37
  %20 = load ptr, ptr %5, align 8, !tbaa !10
  %21 = getelementptr inbounds nuw %struct._lv_image_t, ptr %20, i32 0, i32 4
  %22 = load i32, ptr %21, align 8, !tbaa !21
  %23 = call i32 @lv_pct_to_px(i32 noundef %19, i32 noundef %22)
  %24 = load ptr, ptr %4, align 8, !tbaa !45
  %25 = getelementptr inbounds nuw %struct.lv_point_t, ptr %24, i32 0, i32 0
  store i32 %23, ptr %25, align 4, !tbaa !46
  %26 = load ptr, ptr %5, align 8, !tbaa !10
  %27 = getelementptr inbounds nuw %struct._lv_image_t, ptr %26, i32 0, i32 9
  %28 = getelementptr inbounds nuw %struct.lv_point_t, ptr %27, i32 0, i32 1
  %29 = load i32, ptr %28, align 4, !tbaa !38
  %30 = load ptr, ptr %5, align 8, !tbaa !10
  %31 = getelementptr inbounds nuw %struct._lv_image_t, ptr %30, i32 0, i32 5
  %32 = load i32, ptr %31, align 4, !tbaa !22
  %33 = call i32 @lv_pct_to_px(i32 noundef %29, i32 noundef %32)
  %34 = load ptr, ptr %4, align 8, !tbaa !45
  %35 = getelementptr inbounds nuw %struct.lv_point_t, ptr %34, i32 0, i32 1
  store i32 %33, ptr %35, align 4, !tbaa !47
  call void @llvm.lifetime.end.p0(i64 8, ptr %5) #5
  ret void
}

; Function Attrs: nounwind uwtable
define internal void @scale_update(ptr noundef %0, i32 noundef %1, i32 noundef %2) #0 {
  %4 = alloca ptr, align 8
  %5 = alloca i32, align 4
  %6 = alloca i32, align 4
  %7 = alloca ptr, align 8
  %8 = alloca i32, align 4
  %9 = alloca i32, align 4
  %10 = alloca %struct.lv_area_t, align 4
  %11 = alloca %struct.lv_point_t, align 4
  %12 = alloca ptr, align 8
  store ptr %0, ptr %4, align 8, !tbaa !8
  store i32 %1, ptr %5, align 4, !tbaa !28
  store i32 %2, ptr %6, align 4, !tbaa !28
  call void @llvm.lifetime.start.p0(i64 8, ptr %7) #5
  %13 = load ptr, ptr %4, align 8, !tbaa !8
  store ptr %13, ptr %7, align 8, !tbaa !10
  %14 = load ptr, ptr %4, align 8, !tbaa !8
  call void @lv_obj_update_layout(ptr noundef %14)
  call void @llvm.lifetime.start.p0(i64 4, ptr %8) #5
  %15 = load ptr, ptr %4, align 8, !tbaa !8
  %16 = call i32 @lv_obj_get_width(ptr noundef %15)
  store i32 %16, ptr %8, align 4, !tbaa !28
  call void @llvm.lifetime.start.p0(i64 4, ptr %9) #5
  %17 = load ptr, ptr %4, align 8, !tbaa !8
  %18 = call i32 @lv_obj_get_height(ptr noundef %17)
  store i32 %18, ptr %9, align 4, !tbaa !28
  call void @llvm.lifetime.start.p0(i64 16, ptr %10) #5
  call void @llvm.lifetime.start.p0(i64 8, ptr %11) #5
  %19 = load ptr, ptr %4, align 8, !tbaa !8
  call void @lv_image_get_pivot(ptr noundef %19, ptr noundef %11)
  %20 = load i32, ptr %8, align 4, !tbaa !28
  %21 = load i32, ptr %9, align 4, !tbaa !28
  %22 = load ptr, ptr %7, align 8, !tbaa !10
  %23 = getelementptr inbounds nuw %struct._lv_image_t, ptr %22, i32 0, i32 6
  %24 = load i32, ptr %23, align 8, !tbaa !23
  %25 = load ptr, ptr %7, align 8, !tbaa !10
  %26 = getelementptr inbounds nuw %struct._lv_image_t, ptr %25, i32 0, i32 7
  %27 = load i32, ptr %26, align 4, !tbaa !24
  %28 = trunc i32 %27 to i16
  %29 = load ptr, ptr %7, align 8, !tbaa !10
  %30 = getelementptr inbounds nuw %struct._lv_image_t, ptr %29, i32 0, i32 8
  %31 = load i32, ptr %30, align 8, !tbaa !25
  %32 = trunc i32 %31 to i16
  call void @lv_image_buf_get_transformed_area(ptr noundef %10, i32 noundef %20, i32 noundef %21, i32 noundef %24, i16 noundef zeroext %28, i16 noundef zeroext %32, ptr noundef %11)
  %33 = load ptr, ptr %4, align 8, !tbaa !8
  %34 = getelementptr inbounds nuw %struct._lv_obj_t, ptr %33, i32 0, i32 5
  %35 = getelementptr inbounds nuw %struct.lv_area_t, ptr %34, i32 0, i32 0
  %36 = load i32, ptr %35, align 8, !tbaa !39
  %37 = sub nsw i32 %36, 1
  %38 = getelementptr inbounds nuw %struct.lv_area_t, ptr %10, i32 0, i32 0
  %39 = load i32, ptr %38, align 4, !tbaa !31
  %40 = add nsw i32 %39, %37
  store i32 %40, ptr %38, align 4, !tbaa !31
  %41 = load ptr, ptr %4, align 8, !tbaa !8
  %42 = getelementptr inbounds nuw %struct._lv_obj_t, ptr %41, i32 0, i32 5
  %43 = getelementptr inbounds nuw %struct.lv_area_t, ptr %42, i32 0, i32 1
  %44 = load i32, ptr %43, align 4, !tbaa !40
  %45 = sub nsw i32 %44, 1
  %46 = getelementptr inbounds nuw %struct.lv_area_t, ptr %10, i32 0, i32 1
  %47 = load i32, ptr %46, align 4, !tbaa !32
  %48 = add nsw i32 %47, %45
  store i32 %48, ptr %46, align 4, !tbaa !32
  %49 = load ptr, ptr %4, align 8, !tbaa !8
  %50 = getelementptr inbounds nuw %struct._lv_obj_t, ptr %49, i32 0, i32 5
  %51 = getelementptr inbounds nuw %struct.lv_area_t, ptr %50, i32 0, i32 0
  %52 = load i32, ptr %51, align 8, !tbaa !39
  %53 = add nsw i32 %52, 1
  %54 = getelementptr inbounds nuw %struct.lv_area_t, ptr %10, i32 0, i32 2
  %55 = load i32, ptr %54, align 4, !tbaa !33
  %56 = add nsw i32 %55, %53
  store i32 %56, ptr %54, align 4, !tbaa !33
  %57 = load ptr, ptr %4, align 8, !tbaa !8
  %58 = getelementptr inbounds nuw %struct._lv_obj_t, ptr %57, i32 0, i32 5
  %59 = getelementptr inbounds nuw %struct.lv_area_t, ptr %58, i32 0, i32 1
  %60 = load i32, ptr %59, align 4, !tbaa !40
  %61 = add nsw i32 %60, 1
  %62 = getelementptr inbounds nuw %struct.lv_area_t, ptr %10, i32 0, i32 3
  %63 = load i32, ptr %62, align 4, !tbaa !34
  %64 = add nsw i32 %63, %61
  store i32 %64, ptr %62, align 4, !tbaa !34
  %65 = load ptr, ptr %4, align 8, !tbaa !8
  call void @lv_obj_invalidate_area(ptr noundef %65, ptr noundef %10)
  %66 = load i32, ptr %5, align 4, !tbaa !28
  %67 = load ptr, ptr %7, align 8, !tbaa !10
  %68 = getelementptr inbounds nuw %struct._lv_image_t, ptr %67, i32 0, i32 7
  store i32 %66, ptr %68, align 4, !tbaa !24
  %69 = load i32, ptr %6, align 4, !tbaa !28
  %70 = load ptr, ptr %7, align 8, !tbaa !10
  %71 = getelementptr inbounds nuw %struct._lv_image_t, ptr %70, i32 0, i32 8
  store i32 %69, ptr %71, align 8, !tbaa !25
  call void @llvm.lifetime.start.p0(i64 8, ptr %12) #5
  %72 = load ptr, ptr %4, align 8, !tbaa !8
  %73 = call ptr @lv_obj_get_display(ptr noundef %72)
  store ptr %73, ptr %12, align 8, !tbaa !58
  %74 = load ptr, ptr %12, align 8, !tbaa !58
  call void @lv_display_enable_invalidation(ptr noundef %74, i1 noundef zeroext false)
  %75 = load ptr, ptr %4, align 8, !tbaa !8
  call void @lv_obj_refresh_ext_draw_size(ptr noundef %75)
  %76 = load ptr, ptr %12, align 8, !tbaa !58
  call void @lv_display_enable_invalidation(ptr noundef %76, i1 noundef zeroext true)
  %77 = load i32, ptr %8, align 4, !tbaa !28
  %78 = load i32, ptr %9, align 4, !tbaa !28
  %79 = load ptr, ptr %7, align 8, !tbaa !10
  %80 = getelementptr inbounds nuw %struct._lv_image_t, ptr %79, i32 0, i32 6
  %81 = load i32, ptr %80, align 8, !tbaa !23
  %82 = load ptr, ptr %7, align 8, !tbaa !10
  %83 = getelementptr inbounds nuw %struct._lv_image_t, ptr %82, i32 0, i32 7
  %84 = load i32, ptr %83, align 4, !tbaa !24
  %85 = trunc i32 %84 to i16
  %86 = load ptr, ptr %7, align 8, !tbaa !10
  %87 = getelementptr inbounds nuw %struct._lv_image_t, ptr %86, i32 0, i32 8
  %88 = load i32, ptr %87, align 8, !tbaa !25
  %89 = trunc i32 %88 to i16
  call void @lv_image_buf_get_transformed_area(ptr noundef %10, i32 noundef %77, i32 noundef %78, i32 noundef %81, i16 noundef zeroext %85, i16 noundef zeroext %89, ptr noundef %11)
  %90 = load ptr, ptr %4, align 8, !tbaa !8
  %91 = getelementptr inbounds nuw %struct._lv_obj_t, ptr %90, i32 0, i32 5
  %92 = getelementptr inbounds nuw %struct.lv_area_t, ptr %91, i32 0, i32 0
  %93 = load i32, ptr %92, align 8, !tbaa !39
  %94 = sub nsw i32 %93, 1
  %95 = getelementptr inbounds nuw %struct.lv_area_t, ptr %10, i32 0, i32 0
  %96 = load i32, ptr %95, align 4, !tbaa !31
  %97 = add nsw i32 %96, %94
  store i32 %97, ptr %95, align 4, !tbaa !31
  %98 = load ptr, ptr %4, align 8, !tbaa !8
  %99 = getelementptr inbounds nuw %struct._lv_obj_t, ptr %98, i32 0, i32 5
  %100 = getelementptr inbounds nuw %struct.lv_area_t, ptr %99, i32 0, i32 1
  %101 = load i32, ptr %100, align 4, !tbaa !40
  %102 = sub nsw i32 %101, 1
  %103 = getelementptr inbounds nuw %struct.lv_area_t, ptr %10, i32 0, i32 1
  %104 = load i32, ptr %103, align 4, !tbaa !32
  %105 = add nsw i32 %104, %102
  store i32 %105, ptr %103, align 4, !tbaa !32
  %106 = load ptr, ptr %4, align 8, !tbaa !8
  %107 = getelementptr inbounds nuw %struct._lv_obj_t, ptr %106, i32 0, i32 5
  %108 = getelementptr inbounds nuw %struct.lv_area_t, ptr %107, i32 0, i32 0
  %109 = load i32, ptr %108, align 8, !tbaa !39
  %110 = add nsw i32 %109, 1
  %111 = getelementptr inbounds nuw %struct.lv_area_t, ptr %10, i32 0, i32 2
  %112 = load i32, ptr %111, align 4, !tbaa !33
  %113 = add nsw i32 %112, %110
  store i32 %113, ptr %111, align 4, !tbaa !33
  %114 = load ptr, ptr %4, align 8, !tbaa !8
  %115 = getelementptr inbounds nuw %struct._lv_obj_t, ptr %114, i32 0, i32 5
  %116 = getelementptr inbounds nuw %struct.lv_area_t, ptr %115, i32 0, i32 1
  %117 = load i32, ptr %116, align 4, !tbaa !40
  %118 = add nsw i32 %117, 1
  %119 = getelementptr inbounds nuw %struct.lv_area_t, ptr %10, i32 0, i32 3
  %120 = load i32, ptr %119, align 4, !tbaa !34
  %121 = add nsw i32 %120, %118
  store i32 %121, ptr %119, align 4, !tbaa !34
  %122 = load ptr, ptr %4, align 8, !tbaa !8
  call void @lv_obj_invalidate_area(ptr noundef %122, ptr noundef %10)
  call void @llvm.lifetime.end.p0(i64 8, ptr %12) #5
  call void @llvm.lifetime.end.p0(i64 8, ptr %11) #5
  call void @llvm.lifetime.end.p0(i64 16, ptr %10) #5
  call void @llvm.lifetime.end.p0(i64 4, ptr %9) #5
  call void @llvm.lifetime.end.p0(i64 4, ptr %8) #5
  call void @llvm.lifetime.end.p0(i64 8, ptr %7) #5
  ret void
}