; Function Attrs: nounwind uwtable
define internal fastcc void @scale_update(ptr noundef %0, i32 noundef %1, i32 noundef %2) unnamed_addr #0 {
  %4 = alloca %struct.lv_area_t, align 4
  %5 = alloca %struct.lv_point_t, align 4
  tail call void @lv_obj_update_layout(ptr noundef %0) #6
  %6 = tail call i32 @lv_obj_get_width(ptr noundef %0) #6
  %7 = tail call i32 @lv_obj_get_height(ptr noundef %0) #6
  call void @llvm.lifetime.start.p0(i64 16, ptr nonnull %4) #6
  call void @llvm.lifetime.start.p0(i64 8, ptr nonnull %5) #6
  %.not.i = icmp eq ptr %0, null
  br i1 %.not.i, label %.preheader.i, label %lv_image_get_pivot.exit

.preheader.i:                                     ; preds = %3, %.preheader.i
  br label %.preheader.i

lv_image_get_pivot.exit:                          ; preds = %3
  %8 = getelementptr inbounds nuw i8, ptr %0, i64 108
  %9 = load i32, ptr %8, align 4, !tbaa !22
  %10 = getelementptr inbounds nuw i8, ptr %0, i64 88
  %11 = load i32, ptr %10, align 8, !tbaa !17
  %12 = tail call i32 @lv_pct_to_px(i32 noundef %9, i32 noundef %11) #6
  store i32 %12, ptr %5, align 4, !tbaa !23
  %13 = getelementptr inbounds nuw i8, ptr %0, i64 112
  %14 = load i32, ptr %13, align 4, !tbaa !24
  %15 = getelementptr inbounds nuw i8, ptr %0, i64 92
  %16 = load i32, ptr %15, align 4, !tbaa !18
  %17 = tail call i32 @lv_pct_to_px(i32 noundef %14, i32 noundef %16) #6
  %18 = getelementptr inbounds nuw i8, ptr %5, i64 4
  store i32 %17, ptr %18, align 4, !tbaa !25
  %19 = getelementptr inbounds nuw i8, ptr %0, i64 96
  %20 = load i32, ptr %19, align 8, !tbaa !19
  %21 = getelementptr inbounds nuw i8, ptr %0, i64 100
  %22 = load i32, ptr %21, align 4, !tbaa !20
  %23 = trunc i32 %22 to i16
  %24 = getelementptr inbounds nuw i8, ptr %0, i64 104
  %25 = load i32, ptr %24, align 8, !tbaa !21
  %26 = trunc i32 %25 to i16
  call void @lv_image_buf_get_transformed_area(ptr noundef nonnull %4, i32 noundef %6, i32 noundef %7, i32 noundef %20, i16 noundef zeroext %23, i16 noundef zeroext %26, ptr noundef nonnull %5) #6
  %27 = getelementptr inbounds nuw i8, ptr %0, i64 40
  %28 = load i32, ptr %27, align 8, !tbaa !31
  %29 = add nsw i32 %28, -1
  %30 = load i32, ptr %4, align 4, !tbaa !27
  %31 = add nsw i32 %29, %30
  store i32 %31, ptr %4, align 4, !tbaa !27
  %32 = getelementptr inbounds nuw i8, ptr %0, i64 44
  %33 = load i32, ptr %32, align 4, !tbaa !32
  %34 = add nsw i32 %33, -1
  %35 = getelementptr inbounds nuw i8, ptr %4, i64 4
  %36 = load i32, ptr %35, align 4, !tbaa !28
  %37 = add nsw i32 %34, %36
  store i32 %37, ptr %35, align 4, !tbaa !28
  %38 = add nsw i32 %28, 1
  %39 = getelementptr inbounds nuw i8, ptr %4, i64 8
  %40 = load i32, ptr %39, align 4, !tbaa !29
  %41 = add nsw i32 %38, %40
  store i32 %41, ptr %39, align 4, !tbaa !29
  %42 = add nsw i32 %33, 1
  %43 = getelementptr inbounds nuw i8, ptr %4, i64 12
  %44 = load i32, ptr %43, align 4, !tbaa !30
  %45 = add nsw i32 %42, %44
  store i32 %45, ptr %43, align 4, !tbaa !30
  call void @lv_obj_invalidate_area(ptr noundef nonnull %0, ptr noundef nonnull %4) #6
  store i32 %1, ptr %21, align 4, !tbaa !20
  store i32 %2, ptr %24, align 8, !tbaa !21
  %46 = call ptr @lv_obj_get_display(ptr noundef nonnull %0) #6
  call void @lv_display_enable_invalidation(ptr noundef %46, i1 noundef zeroext false) #6
  call void @lv_obj_refresh_ext_draw_size(ptr noundef nonnull %0) #6
  call void @lv_display_enable_invalidation(ptr noundef %46, i1 noundef zeroext true) #6
  %47 = load i32, ptr %19, align 8, !tbaa !19
  %48 = load i32, ptr %21, align 4, !tbaa !20
  %49 = trunc i32 %48 to i16
  %50 = load i32, ptr %24, align 8, !tbaa !21
  %51 = trunc i32 %50 to i16
  call void @lv_image_buf_get_transformed_area(ptr noundef nonnull %4, i32 noundef %6, i32 noundef %7, i32 noundef %47, i16 noundef zeroext %49, i16 noundef zeroext %51, ptr noundef nonnull %5) #6
  %52 = load i32, ptr %27, align 8, !tbaa !31
  %53 = add nsw i32 %52, -1
  %54 = load i32, ptr %4, align 4, !tbaa !27
  %55 = add nsw i32 %53, %54
  store i32 %55, ptr %4, align 4, !tbaa !27
  %56 = load i32, ptr %32, align 4, !tbaa !32
  %57 = add nsw i32 %56, -1
  %58 = load i32, ptr %35, align 4, !tbaa !28
  %59 = add nsw i32 %57, %58
  store i32 %59, ptr %35, align 4, !tbaa !28
  %60 = add nsw i32 %52, 1
  %61 = load i32, ptr %39, align 4, !tbaa !29
  %62 = add nsw i32 %60, %61
  store i32 %62, ptr %39, align 4, !tbaa !29
  %63 = add nsw i32 %56, 1
  %64 = load i32, ptr %43, align 4, !tbaa !30
  %65 = add nsw i32 %63, %64
  store i32 %65, ptr %43, align 4, !tbaa !30
  call void @lv_obj_invalidate_area(ptr noundef nonnull %0, ptr noundef nonnull %4) #6
  call void @llvm.lifetime.end.p0(i64 8, ptr nonnull %5) #6
  call void @llvm.lifetime.end.p0(i64 16, ptr nonnull %4) #6
  ret void
}